target datalayout = "e-m:e-p270:32:32-p271:32:32-p272:64:64-i64:64-i128:128-f80:128-n8:16:32:64-S128"
target triple = "x86_64-unknown-linux-gnu"

%struct.rand_data = type { ptr, i64, i64, i64, i32, i32, ptr, i32, i32, i32, i32, i32, i32, i32, i32, i32, i32, i32, i8 }

@jent_apt_cutoff_lookup = internal constant [15 x i32] [i32 325, i32 422, i32 459, i32 477, i32 488, i32 494, i32 499, i32 502, i32 505, i32 507, i32 508, i32 509, i32 510, i32 511, i32 512], align 16
@jent_apt_cutoff_permanent_lookup = internal constant [15 x i32] [i32 355, i32 447, i32 479, i32 494, i32 502, i32 507, i32 510, i32 512, i32 512, i32 512, i32 512, i32 512, i32 512, i32 512, i32 512], align 16

; Function Attrs: fn_ret_thunk_extern nounwind null_pointer_is_valid
define internal i32 @jent_health_failure(ptr noundef %0) #0 align 16 {
  %2 = alloca ptr, align 8
  store ptr %0, ptr %2, align 8
  ret i32 0
}

; Function Attrs: fn_ret_thunk_extern nounwind null_pointer_is_valid
define internal void @jent_gen_entropy(ptr noundef %0) #0 align 16 {
  %2 = alloca ptr, align 8
  %3 = alloca i32, align 4
  %4 = alloca i32, align 4
  store ptr %0, ptr %2, align 8
  store i32 0, ptr %3, align 4, !annotation !5
  store i32 0, ptr %3, align 4
  store i32 0, ptr %4, align 4, !annotation !5
  store i32 0, ptr %4, align 4
  %5 = load ptr, ptr %2, align 8
  %6 = call i32 @jent_measure_jitter(ptr noundef %5, ptr noundef null)
  br label %7

7:                                                ; preds = %28, %16, %1
  %8 = load ptr, ptr %2, align 8
  %9 = call i32 @jent_health_failure(ptr noundef %8)
  %10 = icmp ne i32 %9, 0
  %11 = xor i1 %10, true
  br i1 %11, label %12, label %29

12:                                               ; preds = %7
  %13 = load ptr, ptr %2, align 8
  %14 = call i32 @jent_measure_jitter(ptr noundef %13, ptr noundef null)
  %15 = icmp ne i32 %14, 0
  br i1 %15, label %16, label %17

16:                                               ; preds = %12
  br label %7, !llvm.loop !8

17:                                               ; preds = %12
  %18 = load i32, ptr %3, align 4
  %19 = add i32 %18, 1
  store i32 %19, ptr %3, align 4
  %20 = load i32, ptr %4, align 4
  %21 = add i32 256, %20
  %22 = load ptr, ptr %2, align 8
  %23 = getelementptr inbounds %struct.rand_data, ptr %22, i32 0, i32 5
  %24 = load i32, ptr %23, align 4
  %25 = mul i32 %21, %24
  %26 = icmp uge i32 %19, %25
  br i1 %26, label %27, label %28

27:                                               ; preds = %17
  br label %29

28:                                               ; preds = %17
  br label %7, !llvm.loop !8

29:                                               ; preds = %27, %7
  ret void
}

; Function Attrs: fn_ret_thunk_extern nounwind null_pointer_is_valid
define internal void @jent_apt_init(ptr noundef %0, i32 noundef %1) #0 align 16 {
  %3 = alloca ptr, align 8
  %4 = alloca i32, align 4
  store ptr %0, ptr %3, align 8
  store i32 %1, ptr %4, align 4
  %5 = load i32, ptr %4, align 4
  %6 = zext i32 %5 to i64
  %7 = icmp uge i64 %6, 15
  br i1 %7, label %8, label %15

8:                                                ; preds = %2
  %9 = load i32, ptr getelementptr inbounds ([15 x i32], ptr @jent_apt_cutoff_lookup, i64 0, i64 14), align 8
  %10 = load ptr, ptr %3, align 8
  %11 = getelementptr inbounds %struct.rand_data, ptr %10, i32 0, i32 12
  store i32 %9, ptr %11, align 4
  %12 = load i32, ptr getelementptr inbounds ([15 x i32], ptr @jent_apt_cutoff_permanent_lookup, i64 0, i64 14), align 8
  %13 = load ptr, ptr %3, align 8
  %14 = getelementptr inbounds %struct.rand_data, ptr %13, i32 0, i32 13
  store i32 %12, ptr %14, align 8
  br label %30

15:                                               ; preds = %2
  %16 = load i32, ptr %4, align 4
  %17 = sub i32 %16, 1
  %18 = zext i32 %17 to i64
  %19 = getelementptr [15 x i32], ptr @jent_apt_cutoff_lookup, i64 0, i64 %18
  %20 = load i32, ptr %19, align 4
  %21 = load ptr, ptr %3, align 8
  %22 = getelementptr inbounds %struct.rand_data, ptr %21, i32 0, i32 12
  store i32 %20, ptr %22, align 4
  %23 = load i32, ptr %4, align 4
  %24 = sub i32 %23, 1
  %25 = zext i32 %24 to i64
  %26 = getelementptr [15 x i32], ptr @jent_apt_cutoff_permanent_lookup, i64 0, i64 %25
  %27 = load i32, ptr %26, align 4
  %28 = load ptr, ptr %3, align 8
  %29 = getelementptr inbounds %struct.rand_data, ptr %28, i32 0, i32 13
  store i32 %27, ptr %29, align 8
  br label %30

30:                                               ; preds = %15, %8
  ret void
}

; Function Attrs: fn_ret_thunk_extern nounwind null_pointer_is_valid
define dso_local ptr @jent_entropy_collector_alloc(i32 noundef %0, i32 noundef %1, ptr noundef %2) #0 align 16 {
  %4 = alloca ptr, align 8
  %5 = alloca i32, align 4
  %6 = alloca i32, align 4
  %7 = alloca ptr, align 8
  %8 = alloca ptr, align 8
  store i32 %0, ptr %5, align 4
  store i32 %1, ptr %6, align 4
  store ptr %2, ptr %7, align 8
  store ptr null, ptr %8, align 8, !annotation !5
  %9 = call ptr @jent_zalloc(i32 noundef 96)
  store ptr %9, ptr %8, align 8
  %10 = load ptr, ptr %8, align 8
  %11 = icmp ne ptr %10, null
  br i1 %11, label %13, label %12

12:                                               ; preds = %3
  store ptr null, ptr %4, align 8
  br label %52

13:                                               ; preds = %3
  %14 = load i32, ptr %6, align 4
  %15 = and i32 %14, 4
  %16 = icmp ne i32 %15, 0
  br i1 %16, label %34, label %17

17:                                               ; preds = %13
  %18 = call ptr @jent_kvzalloc(i32 noundef 2048)
  %19 = load ptr, ptr %8, align 8
  %20 = getelementptr inbounds %struct.rand_data, ptr %19, i32 0, i32 6
  store ptr %18, ptr %20, align 8
  %21 = load ptr, ptr %8, align 8
  %22 = getelementptr inbounds %struct.rand_data, ptr %21, i32 0, i32 6
  %23 = load ptr, ptr %22, align 8
  %24 = icmp ne ptr %23, null
  br i1 %24, label %27, label %25

25:                                               ; preds = %17
  %26 = load ptr, ptr %8, align 8
  call void @jent_zfree(ptr noundef %26)
  store ptr null, ptr %4, align 8
  br label %52

27:                                               ; preds = %17
  %28 = load ptr, ptr %8, align 8
  %29 = getelementptr inbounds %struct.rand_data, ptr %28, i32 0, i32 9
  store i32 32, ptr %29, align 8
  %30 = load ptr, ptr %8, align 8
  %31 = getelementptr inbounds %struct.rand_data, ptr %30, i32 0, i32 8
  store i32 64, ptr %31, align 4
  %32 = load ptr, ptr %8, align 8
  %33 = getelementptr inbounds %struct.rand_data, ptr %32, i32 0, i32 10
  store i32 128, ptr %33, align 4
  br label %34

34:                                               ; preds = %27, %13
  %35 = load i32, ptr %5, align 4
  %36 = icmp eq i32 %35, 0
  br i1 %36, label %37, label %38

37:                                               ; preds = %34
  store i32 1, ptr %5, align 4
  br label %38

38:                                               ; preds = %37, %34
  %39 = load i32, ptr %5, align 4
  %40 = load ptr, ptr %8, align 8
  %41 = getelementptr inbounds %struct.rand_data, ptr %40, i32 0, i32 5
  store i32 %39, ptr %41, align 4
  %42 = load i32, ptr %6, align 4
  %43 = load ptr, ptr %8, align 8
  %44 = getelementptr inbounds %struct.rand_data, ptr %43, i32 0, i32 4
  store i32 %42, ptr %44, align 8
  %45 = load ptr, ptr %7, align 8
  %46 = load ptr, ptr %8, align 8
  %47 = getelementptr inbounds %struct.rand_data, ptr %46, i32 0, i32 0
  store ptr %45, ptr %47, align 8
  %48 = load ptr, ptr %8, align 8
  %49 = load i32, ptr %5, align 4
  call void @jent_apt_init(ptr noundef %48, i32 noundef %49)
  %50 = load ptr, ptr %8, align 8
  call void @jent_gen_entropy(ptr noundef %50)
  %51 = load ptr, ptr %8, align 8
  store ptr %51, ptr %4, align 8
  br label %52

52:                                               ; preds = %38, %25, %12
  %53 = load ptr, ptr %4, align 8
  ret ptr %53
}