; Function Attrs: fn_ret_thunk_extern nounwind null_pointer_is_valid
define dso_local ptr @jent_entropy_collector_alloc(i32 noundef %0, i32 noundef %1, ptr noundef %2) local_unnamed_addr #0 align 16 {
  %4 = tail call ptr @jent_zalloc(i32 noundef 96) #4
  %.not = icmp eq ptr %4, null
  br i1 %.not, label %jent_gen_entropy.exit, label %5

5:                                                ; preds = %3
  %6 = and i32 %1, 4
  %.not20 = icmp eq i32 %6, 0
  br i1 %.not20, label %7, label %15

7:                                                ; preds = %5
  %8 = tail call ptr @jent_kvzalloc(i32 noundef 2048) #4
  %9 = getelementptr inbounds i8, ptr %4, i64 40
  store ptr %8, ptr %9, align 8
  %.not21 = icmp eq ptr %8, null
  br i1 %.not21, label %10, label %11

10:                                               ; preds = %7
  tail call void @jent_zfree(ptr noundef nonnull %4) #4
  br label %jent_gen_entropy.exit

11:                                               ; preds = %7
  %12 = getelementptr inbounds i8, ptr %4, i64 56
  store i32 32, ptr %12, align 8
  %13 = getelementptr inbounds i8, ptr %4, i64 52
  store i32 64, ptr %13, align 4
  %14 = getelementptr inbounds i8, ptr %4, i64 60
  store i32 128, ptr %14, align 4
  br label %15

15:                                               ; preds = %11, %5
  %spec.store.select = tail call i32 @llvm.umax.i32(i32 %0, i32 1)
  %16 = getelementptr inbounds i8, ptr %4, i64 36
  store i32 %spec.store.select, ptr %16, align 4
  %17 = getelementptr inbounds i8, ptr %4, i64 32
  store i32 %1, ptr %17, align 8
  store ptr %2, ptr %4, align 8
  %18 = icmp ugt i32 %0, 14
  br i1 %18, label %jent_apt_init.exit, label %19

19:                                               ; preds = %15
  %20 = add nsw i32 %spec.store.select, -1
  %21 = zext nneg i32 %20 to i64
  %22 = getelementptr [15 x i32], ptr @jent_apt_cutoff_lookup, i64 0, i64 %21
  %23 = load i32, ptr %22, align 4
  %24 = getelementptr [15 x i32], ptr @jent_apt_cutoff_permanent_lookup, i64 0, i64 %21
  %25 = load i32, ptr %24, align 4
  br label %jent_apt_init.exit

jent_apt_init.exit:                               ; preds = %15, %19
  %.sink6.i = phi i32 [ %23, %19 ], [ 512, %15 ]
  %.sink.i = phi i32 [ %25, %19 ], [ 512, %15 ]
  %26 = getelementptr inbounds i8, ptr %4, i64 68
  store i32 %.sink6.i, ptr %26, align 4
  %27 = getelementptr inbounds i8, ptr %4, i64 72
  store i32 %.sink.i, ptr %27, align 8
  %28 = tail call fastcc i32 @jent_measure_jitter(ptr noundef nonnull %4, ptr noundef null), !range !5
  br label %.outer.i

.outer.i:                                         ; preds = %31, %jent_apt_init.exit
  %.0.ph.i = phi i32 [ %32, %31 ], [ 0, %jent_apt_init.exit ]
  br label %29

29:                                               ; preds = %29, %.outer.i
  %30 = tail call fastcc i32 @jent_measure_jitter(ptr noundef nonnull %4, ptr noundef null), !range !5
  %.not.i = icmp eq i32 %30, 0
  br i1 %.not.i, label %31, label %29, !llvm.loop !6

31:                                               ; preds = %29
  %32 = add nuw i32 %.0.ph.i, 1
  %33 = load i32, ptr %16, align 4
  %34 = shl i32 %33, 8
  %.not6.i = icmp ult i32 %32, %34
  br i1 %.not6.i, label %.outer.i, label %jent_gen_entropy.exit, !llvm.loop !6

jent_gen_entropy.exit:                            ; preds = %31, %3, %10
  %.0 = phi ptr [ null, %10 ], [ null, %3 ], [ %4, %31 ]
  ret ptr %.0
}